target datalayout = "e-m:e-p270:32:32-p271:32:32-p272:64:64-i64:64-i128:128-f80:128-n8:16:32:64-S128"
target triple = "x86_64-pc-linux-gnu"

%"class.boost::detail::shared_count" = type { ptr }
%"class.std::__cxx11::basic_string" = type { %"struct.std::__cxx11::basic_string<char>::_Alloc_hider", i64, %union.anon }
%"struct.std::__cxx11::basic_string<char>::_Alloc_hider" = type { ptr }
%union.anon = type { i64, [8 x i8] }
%"class.boost::filesystem::path" = type { %"class.std::__cxx11::basic_string" }
%"class.std::basic_ostream.base" = type { ptr }
%"class.std::basic_streambuf" = type { ptr, ptr, ptr, ptr, ptr, ptr, ptr, %"class.std::locale" }
%"class.std::locale" = type { ptr }
%"class.std::basic_ios" = type { %"class.std::ios_base", ptr, i8, i8, ptr, ptr, ptr, ptr }
%"class.std::ios_base" = type { ptr, i64, i64, i32, i32, i32, ptr, %"struct.std::ios_base::_Words", [8 x %"struct.std::ios_base::_Words"], i32, ptr, %"class.std::locale" }
%"struct.std::ios_base::_Words" = type { ptr, i64 }
%"class.boost::log::v2_mt_posix::aux::light_function" = type { ptr }
%union.pthread_mutex_t = type { %struct.__pthread_mutex_s }
%struct.__pthread_mutex_s = type { i32, i32, i32, i32, i32, i16, i16, %struct.__pthread_internal_list }
%struct.__pthread_internal_list = type { ptr, ptr }
%"class.boost::shared_ptr.131" = type { ptr, %"class.boost::detail::shared_count" }
%"class.boost::log::v2_mt_posix::aux::light_function.154" = type { ptr }
%"class.boost::log::v2_mt_posix::sinks::text_file_backend" = type { ptr }
%"struct.boost::log::v2_mt_posix::sinks::text_file_backend::implementation" = type { %"class.boost::filesystem::path", %"class.boost::filesystem::path", %"class.boost::log::v2_mt_posix::aux::light_function", %"class.boost::filesystem::path", %"class.boost::filesystem::path", %"class.boost::log::v2_mt_posix::aux::light_function", i32, i32, %"class.boost::filesystem::path", %"class.boost::filesystem::basic_ofstream", i64, %"class.boost::shared_ptr.131", %"class.boost::log::v2_mt_posix::aux::light_function.153", %"class.boost::log::v2_mt_posix::aux::light_function.153", i64, %"class.boost::log::v2_mt_posix::aux::light_function.154", i32, i8, i8, i8, i8 }
%"class.boost::filesystem::basic_ofstream" = type { %"class.std::basic_ofstream.base", %"class.std::basic_ios" }
%"class.std::basic_ofstream.base" = type { %"class.std::basic_ostream.base", %"class.std::basic_filebuf" }
%"class.std::basic_filebuf" = type { %"class.std::basic_streambuf", %union.pthread_mutex_t, %"class.std::__basic_file", i32, %struct.__mbstate_t, %struct.__mbstate_t, %struct.__mbstate_t, ptr, i64, i8, i8, i8, i8, ptr, ptr, i8, ptr, ptr, i64, ptr, ptr }
%"class.std::__basic_file" = type <{ ptr, i8, [7 x i8] }>
%struct.__mbstate_t = type { i32, %union.anon.152 }
%union.anon.152 = type { i32 }
%"class.boost::log::v2_mt_posix::aux::light_function.153" = type { ptr }
%"class.std::basic_ofstream" = type { %"class.std::basic_ostream.base", %"class.std::basic_filebuf", %"class.std::basic_ios" }

; Function Attrs: mustprogress nounwind uwtable
define available_externally noundef zeroext i1 @_ZNKSt13basic_filebufIcSt11char_traitsIcEE7is_openEv(ptr noundef nonnull align 8 dereferenceable(240) %0) #3 align 2 {
  %2 = alloca ptr, align 8
  store ptr %0, ptr %2, align 8, !tbaa !3
  %3 = load ptr, ptr %2, align 8
  %4 = getelementptr inbounds nuw %"class.std::basic_filebuf", ptr %3, i32 0, i32 2
  %5 = call noundef zeroext i1 @_ZNKSt12__basic_fileIcE7is_openEv(ptr noundef nonnull align 8 dereferenceable(9) %4) #28
  ret i1 %5
}

; Function Attrs: mustprogress nounwind uwtable
define available_externally noundef zeroext i1 @_ZNSt14basic_ofstreamIcSt11char_traitsIcEE7is_openEv(ptr noundef nonnull align 8 dereferenceable(248) %0) #3 align 2 {
  %2 = alloca ptr, align 8
  store ptr %0, ptr %2, align 8, !tbaa !3
  %3 = load ptr, ptr %2, align 8
  %4 = getelementptr inbounds nuw %"class.std::basic_ofstream", ptr %3, i32 0, i32 1
  %5 = call noundef zeroext i1 @_ZNKSt13basic_filebufIcSt11char_traitsIcEE7is_openEv(ptr noundef nonnull align 8 dereferenceable(240) %4) #9
  ret i1 %5
}

; Function Attrs: mustprogress uwtable
define void @_ZN5boost3log11v2_mt_posix5sinks17text_file_backend5flushEv(ptr noundef nonnull align 8 dereferenceable(8) %0) #4 align 2 {
  %2 = alloca ptr, align 8
  store ptr %0, ptr %2, align 8, !tbaa !3
  %3 = load ptr, ptr %2, align 8
  %4 = getelementptr inbounds nuw %"class.boost::log::v2_mt_posix::sinks::text_file_backend", ptr %3, i32 0, i32 0
  %5 = load ptr, ptr %4, align 8, !tbaa !142
  %6 = getelementptr inbounds nuw %"struct.boost::log::v2_mt_posix::sinks::text_file_backend::implementation", ptr %5, i32 0, i32 9
  %7 = call noundef zeroext i1 @_ZNSt14basic_ofstreamIcSt11char_traitsIcEE7is_openEv(ptr noundef nonnull align 8 dereferenceable(248) %6)
  br i1 %7, label %8, label %13

8:                                                ; preds = %1
  %9 = getelementptr inbounds nuw %"class.boost::log::v2_mt_posix::sinks::text_file_backend", ptr %3, i32 0, i32 0
  %10 = load ptr, ptr %9, align 8, !tbaa !142
  %11 = getelementptr inbounds nuw %"struct.boost::log::v2_mt_posix::sinks::text_file_backend::implementation", ptr %10, i32 0, i32 9
  %12 = call noundef nonnull align 8 dereferenceable(8) ptr @_ZNSo5flushEv(ptr noundef nonnull align 8 dereferenceable(8) %11)
  br label %13

13:                                               ; preds = %8, %1
  ret void
}