; Function Attrs: mustprogress uwtable
define void @_ZN5boost3log11v2_mt_posix5sinks17text_file_backend5flushEv(ptr nocapture noundef nonnull readonly align 8 dereferenceable(8) %0) local_unnamed_addr #4 align 2 {
  %2 = load ptr, ptr %0, align 8, !tbaa !225
  %3 = getelementptr inbounds nuw i8, ptr %2, i64 296
  %4 = tail call noundef zeroext i1 @_ZNKSt12__basic_fileIcE7is_openEv(ptr noundef nonnull align 8 dereferenceable(9) %3) #34
  br i1 %4, label %5, label %8

5:                                                ; preds = %1
  %6 = getelementptr inbounds nuw i8, ptr %2, i64 184
  %7 = tail call noundef nonnull align 8 dereferenceable(8) ptr @_ZNSo5flushEv(ptr noundef nonnull align 8 dereferenceable(8) %6)
  br label %8

8:                                                ; preds = %5, %1
  ret void
}